; Function Attrs: nounwind uwtable
define ptr @l___private_Lean_Data_FuzzyMatching_0__Lean_FuzzyMatching_containsInOrderLower(ptr noundef %0, ptr noundef %1) local_unnamed_addr #0 {
lean_dec.exit12:
  %2 = getelementptr i8, ptr %0, i64 8
  %.val = load i64, ptr %2, align 8, !tbaa !13
  %.mask = and i64 %.val, 9223372036854775807
  %.not = icmp eq i64 %.mask, 1
  br i1 %.not, label %5, label %3

3:                                                ; preds = %lean_dec.exit12
  %4 = tail call ptr @l___private_Lean_Data_FuzzyMatching_0__Lean_FuzzyMatching_containsInOrderLower___lambda__2(ptr noundef nonnull %0, ptr noundef %1, ptr nonnull poison)
  br label %lean_dec.exit

5:                                                ; preds = %lean_dec.exit12
  %6 = ptrtoint ptr %0 to i64
  %7 = and i64 %6, 1
  %.not15 = icmp eq i64 %7, 0
  br i1 %.not15, label %8, label %lean_dec.exit

8:                                                ; preds = %5
  %9 = load i32, ptr %0, align 4, !tbaa !5
  %10 = icmp sgt i32 %9, 1
  br i1 %10, label %11, label %13, !prof !10

11:                                               ; preds = %8
  %12 = add nsw i32 %9, -1
  store i32 %12, ptr %0, align 4, !tbaa !5
  br label %lean_dec.exit

13:                                               ; preds = %8
  %.not.i13 = icmp eq i32 %9, 0
  br i1 %.not.i13, label %lean_dec.exit, label %14

14:                                               ; preds = %13
  tail call void @lean_dec_ref_cold(ptr noundef nonnull %0) #7
  br label %lean_dec.exit

lean_dec.exit:                                    ; preds = %5, %11, %13, %14, %3
  %.0 = phi ptr [ %4, %3 ], [ inttoptr (i64 3 to ptr), %14 ], [ inttoptr (i64 3 to ptr), %13 ], [ inttoptr (i64 3 to ptr), %11 ], [ inttoptr (i64 3 to ptr), %5 ]
  ret ptr %.0
}